#include <math.h>
#include <stdio.h>
#include <stdlib.h>
#include <string.h>

int main()
{
	char s[1001];
	char a[1001];
	char b[1001];
	char ans[1001]={'\0'};
	int i,j,k,p;
	gets(s);
	gets(a);
	gets(b);
	int l,la,lb;
	l=strlen(s);
	la=strlen(a);
	lb=strlen(b);
	int index;
	index=0;
	for (i=0;i<l;i++)
	{
		k=0;
		for (j=0;j<la;j++)
		{
			if (s[i+j]!=a[j]) k=1;
		}
		if (((i+la)<l)&&(s[i+la]!=' ')) k=1;
		if ((i>0)&&(s[i-1]!=' ')) k=1;
		if (k==0) 
		{
			for (p=0;p<lb;p++) ans[p+index]=b[p];
			index=index+lb-1;
			i=i+la-1;
		}
		if (k>0) ans[index]=s[i];
        index++;
	}
	printf("%s\n",ans);
	return 0;
}