target datalayout = "e-m:e-p270:32:32-p271:32:32-p272:64:64-i64:64-f80:128-n8:16:32:64-S128"
target triple = "x86_64-pc-linux-gnu"

@.str = private unnamed_addr constant [4 x i8] c"%s\0A\00", align 1

; Function Attrs: noinline nounwind uwtable
define dso_local i32 @main() #0 {
  %1 = alloca i32, align 4
  %2 = alloca [1001 x i8], align 16
  %3 = alloca [1001 x i8], align 16
  %4 = alloca [1001 x i8], align 16
  %5 = alloca [1001 x i8], align 16
  %6 = alloca i32, align 4
  %7 = alloca i32, align 4
  %8 = alloca i32, align 4
  %9 = alloca i32, align 4
  %10 = alloca i32, align 4
  %11 = alloca i32, align 4
  %12 = alloca i32, align 4
  %13 = alloca i32, align 4
  store i32 0, i32* %1, align 4
  %14 = bitcast [1001 x i8]* %5 to i8*
  call void @llvm.memset.p0i8.i64(i8* align 16 %14, i8 0, i64 1001, i1 false)
  %15 = getelementptr inbounds [1001 x i8], [1001 x i8]* %2, i64 0, i64 0
  %16 = call i32 (i8*, ...) bitcast (i32 (...)* @gets to i32 (i8*, ...)*)(i8* %15)
  %17 = getelementptr inbounds [1001 x i8], [1001 x i8]* %3, i64 0, i64 0
  %18 = call i32 (i8*, ...) bitcast (i32 (...)* @gets to i32 (i8*, ...)*)(i8* %17)
  %19 = getelementptr inbounds [1001 x i8], [1001 x i8]* %4, i64 0, i64 0
  %20 = call i32 (i8*, ...) bitcast (i32 (...)* @gets to i32 (i8*, ...)*)(i8* %19)
  %21 = getelementptr inbounds [1001 x i8], [1001 x i8]* %2, i64 0, i64 0
  %22 = call i64 @strlen(i8* %21) #4
  %23 = trunc i64 %22 to i32
  store i32 %23, i32* %10, align 4
  %24 = getelementptr inbounds [1001 x i8], [1001 x i8]* %3, i64 0, i64 0
  %25 = call i64 @strlen(i8* %24) #4
  %26 = trunc i64 %25 to i32
  store i32 %26, i32* %11, align 4
  %27 = getelementptr inbounds [1001 x i8], [1001 x i8]* %4, i64 0, i64 0
  %28 = call i64 @strlen(i8* %27) #4
  %29 = trunc i64 %28 to i32
  store i32 %29, i32* %12, align 4
  store i32 0, i32* %13, align 4
  store i32 0, i32* %6, align 4
  br label %30

30:                                               ; preds = %130, %0
  %31 = load i32, i32* %6, align 4
  %32 = load i32, i32* %10, align 4
  %33 = icmp slt i32 %31, %32
  br i1 %33, label %34, label %133

34:                                               ; preds = %30
  store i32 0, i32* %8, align 4
  store i32 0, i32* %7, align 4
  br label %35

35:                                               ; preds = %55, %34
  %36 = load i32, i32* %7, align 4
  %37 = load i32, i32* %11, align 4
  %38 = icmp slt i32 %36, %37
  br i1 %38, label %39, label %58

39:                                               ; preds = %35
  %40 = load i32, i32* %6, align 4
  %41 = load i32, i32* %7, align 4
  %42 = add nsw i32 %40, %41
  %43 = sext i32 %42 to i64
  %44 = getelementptr inbounds [1001 x i8], [1001 x i8]* %2, i64 0, i64 %43
  %45 = load i8, i8* %44, align 1
  %46 = sext i8 %45 to i32
  %47 = load i32, i32* %7, align 4
  %48 = sext i32 %47 to i64
  %49 = getelementptr inbounds [1001 x i8], [1001 x i8]* %3, i64 0, i64 %48
  %50 = load i8, i8* %49, align 1
  %51 = sext i8 %50 to i32
  %52 = icmp ne i32 %46, %51
  br i1 %52, label %53, label %54

53:                                               ; preds = %39
  store i32 1, i32* %8, align 4
  br label %54

54:                                               ; preds = %53, %39
  br label %55

55:                                               ; preds = %54
  %56 = load i32, i32* %7, align 4
  %57 = add nsw i32 %56, 1
  store i32 %57, i32* %7, align 4
  br label %35

58:                                               ; preds = %35
  %59 = load i32, i32* %6, align 4
  %60 = load i32, i32* %11, align 4
  %61 = add nsw i32 %59, %60
  %62 = load i32, i32* %10, align 4
  %63 = icmp slt i32 %61, %62
  br i1 %63, label %64, label %74

64:                                               ; preds = %58
  %65 = load i32, i32* %6, align 4
  %66 = load i32, i32* %11, align 4
  %67 = add nsw i32 %65, %66
  %68 = sext i32 %67 to i64
  %69 = getelementptr inbounds [1001 x i8], [1001 x i8]* %2, i64 0, i64 %68
  %70 = load i8, i8* %69, align 1
  %71 = sext i8 %70 to i32
  %72 = icmp ne i32 %71, 32
  br i1 %72, label %73, label %74

73:                                               ; preds = %64
  store i32 1, i32* %8, align 4
  br label %74

74:                                               ; preds = %73, %64, %58
  %75 = load i32, i32* %6, align 4
  %76 = icmp sgt i32 %75, 0
  br i1 %76, label %77, label %86

77:                                               ; preds = %74
  %78 = load i32, i32* %6, align 4
  %79 = sub nsw i32 %78, 1
  %80 = sext i32 %79 to i64
  %81 = getelementptr inbounds [1001 x i8], [1001 x i8]* %2, i64 0, i64 %80
  %82 = load i8, i8* %81, align 1
  %83 = sext i8 %82 to i32
  %84 = icmp ne i32 %83, 32
  br i1 %84, label %85, label %86

85:                                               ; preds = %77
  store i32 1, i32* %8, align 4
  br label %86

86:                                               ; preds = %85, %77, %74
  %87 = load i32, i32* %8, align 4
  %88 = icmp eq i32 %87, 0
  br i1 %88, label %89, label %116

89:                                               ; preds = %86
  store i32 0, i32* %9, align 4
  br label %90

90:                                               ; preds = %104, %89
  %91 = load i32, i32* %9, align 4
  %92 = load i32, i32* %12, align 4
  %93 = icmp slt i32 %91, %92
  br i1 %93, label %94, label %107

94:                                               ; preds = %90
  %95 = load i32, i32* %9, align 4
  %96 = sext i32 %95 to i64
  %97 = getelementptr inbounds [1001 x i8], [1001 x i8]* %4, i64 0, i64 %96
  %98 = load i8, i8* %97, align 1
  %99 = load i32, i32* %9, align 4
  %100 = load i32, i32* %13, align 4
  %101 = add nsw i32 %99, %100
  %102 = sext i32 %101 to i64
  %103 = getelementptr inbounds [1001 x i8], [1001 x i8]* %5, i64 0, i64 %102
  store i8 %98, i8* %103, align 1
  br label %104

104:                                              ; preds = %94
  %105 = load i32, i32* %9, align 4
  %106 = add nsw i32 %105, 1
  store i32 %106, i32* %9, align 4
  br label %90

107:                                              ; preds = %90
  %108 = load i32, i32* %13, align 4
  %109 = load i32, i32* %12, align 4
  %110 = add nsw i32 %108, %109
  %111 = sub nsw i32 %110, 1
  store i32 %111, i32* %13, align 4
  %112 = load i32, i32* %6, align 4
  %113 = load i32, i32* %11, align 4
  %114 = add nsw i32 %112, %113
  %115 = sub nsw i32 %114, 1
  store i32 %115, i32* %6, align 4
  br label %116

116:                                              ; preds = %107, %86
  %117 = load i32, i32* %8, align 4
  %118 = icmp sgt i32 %117, 0
  br i1 %118, label %119, label %127

119:                                              ; preds = %116
  %120 = load i32, i32* %6, align 4
  %121 = sext i32 %120 to i64
  %122 = getelementptr inbounds [1001 x i8], [1001 x i8]* %2, i64 0, i64 %121
  %123 = load i8, i8* %122, align 1
  %124 = load i32, i32* %13, align 4
  %125 = sext i32 %124 to i64
  %126 = getelementptr inbounds [1001 x i8], [1001 x i8]* %5, i64 0, i64 %125
  store i8 %123, i8* %126, align 1
  br label %127

127:                                              ; preds = %119, %116
  %128 = load i32, i32* %13, align 4
  %129 = add nsw i32 %128, 1
  store i32 %129, i32* %13, align 4
  br label %130

130:                                              ; preds = %127
  %131 = load i32, i32* %6, align 4
  %132 = add nsw i32 %131, 1
  store i32 %132, i32* %6, align 4
  br label %30

133:                                              ; preds = %30
  %134 = getelementptr inbounds [1001 x i8], [1001 x i8]* %5, i64 0, i64 0
  %135 = call i32 (i8*, ...) @printf(i8* getelementptr inbounds ([4 x i8], [4 x i8]* @.str, i64 0, i64 0), i8* %134)
  ret i32 0
}